target datalayout = "e-m:e-p270:32:32-p271:32:32-p272:64:64-i64:64-i128:128-f80:128-n8:16:32:64-S128"
target triple = "x86_64-pc-linux-gnu"

%class.Moves = type { i32, i32, i32, i32, i32, i32, i32, i32, i32, [13 x %"struct.Moves::trackType"], ptr, [13 x [4 x %struct.movePlyType]], ptr, [13 x [4 x i32]], [13 x %"class.std::__cxx11::basic_string"], [13 x [4 x %"struct.Moves::moveStatType"]], [13 x [4 x %"struct.Moves::moveStatType"]], [13 x [4 x %"struct.Moves::moveStatsType"]], [13 x [4 x %"struct.Moves::moveStatsType"]], %"struct.Moves::moveStatsType", %"struct.Moves::moveStatsType", [16 x { i64, i64 }] }
%"struct.Moves::trackType" = type { i32, i32, [4 x i32], [4 x i32], %struct.trickDataType, [4 x %struct.extCard], [4 x i32], [4 x [4 x i32]], [4 x i32] }
%struct.trickDataType = type { [4 x i32], i32, i32, i32, i32, i32 }
%struct.extCard = type { i32, i32, i32 }
%struct.movePlyType = type { [14 x %struct.moveType], i32, i32 }
%struct.moveType = type { i32, i32, i32, i32 }
%"class.std::__cxx11::basic_string" = type { %"struct.std::__cxx11::basic_string<char>::_Alloc_hider", i64, %union.anon }
%"struct.std::__cxx11::basic_string<char>::_Alloc_hider" = type { ptr }
%union.anon = type { i64, [8 x i8] }
%"struct.Moves::moveStatType" = type { i32, i32, i32, i32 }
%"struct.Moves::moveStatsType" = type { i32, [13 x %"struct.Moves::moveStatType"] }
%struct.pos = type { [4 x [4 x i16]], [4 x i16], [4 x [4 x i8]], [4 x i32], [50 x [4 x i16]], [50 x i32], [50 x %struct.moveType], i32, i32, [4 x %struct.highCardType], [4 x %struct.highCardType] }
%struct.highCardType = type { i32, i32 }

@bitMapRank = external global [16 x i16], align 16
@rho = external global [4 x i32], align 16
@partner = external global [4 x i32], align 16

; Function Attrs: mustprogress nounwind uwtable
define void @_ZN5Moves18WeightAllocNTVoid1ERK3pos(ptr noundef nonnull align 8 dereferenceable(39992) %0, ptr noundef nonnull align 4 dereferenceable(1544) %1) #5 align 2 {
  %3 = alloca ptr, align 8
  %4 = alloca ptr, align 8
  %5 = alloca i16, align 2
  %6 = alloca i32, align 4
  %7 = alloca i32, align 4
  %8 = alloca i16, align 2
  %9 = alloca i32, align 4
  %10 = alloca i32, align 4
  store ptr %0, ptr %3, align 8
  store ptr %1, ptr %4, align 8
  %11 = load ptr, ptr %3, align 8
  %12 = load ptr, ptr %4, align 8
  %13 = getelementptr inbounds nuw %struct.pos, ptr %12, i32 0, i32 0
  %14 = getelementptr inbounds nuw %class.Moves, ptr %11, i32 0, i32 0
  %15 = load i32, ptr %14, align 8
  %16 = sext i32 %15 to i64
  %17 = getelementptr inbounds [4 x i32], ptr @rho, i64 0, i64 %16
  %18 = load i32, ptr %17, align 4
  %19 = sext i32 %18 to i64
  %20 = getelementptr inbounds [4 x [4 x i16]], ptr %13, i64 0, i64 %19
  %21 = getelementptr inbounds nuw %class.Moves, ptr %11, i32 0, i32 1
  %22 = load i32, ptr %21, align 4
  %23 = sext i32 %22 to i64
  %24 = getelementptr inbounds [4 x i16], ptr %20, i64 0, i64 %23
  %25 = load i16, ptr %24, align 2
  %26 = zext i16 %25 to i32
  %27 = load ptr, ptr %4, align 8
  %28 = getelementptr inbounds nuw %struct.pos, ptr %27, i32 0, i32 0
  %29 = getelementptr inbounds nuw %class.Moves, ptr %11, i32 0, i32 0
  %30 = load i32, ptr %29, align 8
  %31 = sext i32 %30 to i64
  %32 = getelementptr inbounds [4 x i32], ptr @partner, i64 0, i64 %31
  %33 = load i32, ptr %32, align 4
  %34 = sext i32 %33 to i64
  %35 = getelementptr inbounds [4 x [4 x i16]], ptr %28, i64 0, i64 %34
  %36 = getelementptr inbounds nuw %class.Moves, ptr %11, i32 0, i32 1
  %37 = load i32, ptr %36, align 4
  %38 = sext i32 %37 to i64
  %39 = getelementptr inbounds [4 x i16], ptr %35, i64 0, i64 %38
  %40 = load i16, ptr %39, align 2
  %41 = zext i16 %40 to i32
  %42 = getelementptr inbounds nuw %class.Moves, ptr %11, i32 0, i32 10
  %43 = load ptr, ptr %42, align 8
  %44 = getelementptr inbounds nuw %"struct.Moves::trackType", ptr %43, i32 0, i32 5
  %45 = getelementptr inbounds [4 x %struct.extCard], ptr %44, i64 0, i64 0
  %46 = getelementptr inbounds nuw %struct.extCard, ptr %45, i32 0, i32 1
  %47 = load i32, ptr %46, align 4
  %48 = sext i32 %47 to i64
  %49 = getelementptr inbounds [16 x i16], ptr @bitMapRank, i64 0, i64 %48
  %50 = load i16, ptr %49, align 2
  %51 = zext i16 %50 to i32
  %52 = or i32 %41, %51
  %53 = icmp sgt i32 %26, %52
  br i1 %53, label %54, label %138

54:                                               ; preds = %2
  %55 = load ptr, ptr %4, align 8
  %56 = getelementptr inbounds nuw %struct.pos, ptr %55, i32 0, i32 2
  %57 = getelementptr inbounds nuw %class.Moves, ptr %11, i32 0, i32 2
  %58 = load i32, ptr %57, align 8
  %59 = sext i32 %58 to i64
  %60 = getelementptr inbounds [4 x [4 x i8]], ptr %56, i64 0, i64 %59
  %61 = getelementptr inbounds nuw %class.Moves, ptr %11, i32 0, i32 6
  %62 = load i32, ptr %61, align 8
  %63 = sext i32 %62 to i64
  %64 = getelementptr inbounds [4 x i8], ptr %60, i64 0, i64 %63
  %65 = load i8, ptr %64, align 1
  %66 = zext i8 %65 to i16
  store i16 %66, ptr %5, align 2
  %67 = load i16, ptr %5, align 2
  %68 = zext i16 %67 to i32
  %69 = shl i32 %68, 6
  %70 = sdiv i32 %69, 23
  store i32 %70, ptr %6, align 4
  %71 = load i16, ptr %5, align 2
  %72 = zext i16 %71 to i32
  %73 = icmp eq i32 %72, 2
  br i1 %73, label %74, label %89

74:                                               ; preds = %54
  %75 = load ptr, ptr %4, align 8
  %76 = getelementptr inbounds nuw %struct.pos, ptr %75, i32 0, i32 10
  %77 = getelementptr inbounds nuw %class.Moves, ptr %11, i32 0, i32 6
  %78 = load i32, ptr %77, align 8
  %79 = sext i32 %78 to i64
  %80 = getelementptr inbounds [4 x %struct.highCardType], ptr %76, i64 0, i64 %79
  %81 = getelementptr inbounds nuw %struct.highCardType, ptr %80, i32 0, i32 1
  %82 = load i32, ptr %81, align 4
  %83 = getelementptr inbounds nuw %class.Moves, ptr %11, i32 0, i32 2
  %84 = load i32, ptr %83, align 8
  %85 = icmp eq i32 %82, %84
  br i1 %85, label %86, label %89

86:                                               ; preds = %74
  %87 = load i32, ptr %6, align 4
  %88 = add nsw i32 %87, -2
  store i32 %88, ptr %6, align 4
  br label %109

89:                                               ; preds = %74, %54
  %90 = load i16, ptr %5, align 2
  %91 = zext i16 %90 to i32
  %92 = icmp eq i32 %91, 1
  br i1 %92, label %93, label %108

93:                                               ; preds = %89
  %94 = load ptr, ptr %4, align 8
  %95 = getelementptr inbounds nuw %struct.pos, ptr %94, i32 0, i32 9
  %96 = getelementptr inbounds nuw %class.Moves, ptr %11, i32 0, i32 6
  %97 = load i32, ptr %96, align 8
  %98 = sext i32 %97 to i64
  %99 = getelementptr inbounds [4 x %struct.highCardType], ptr %95, i64 0, i64 %98
  %100 = getelementptr inbounds nuw %struct.highCardType, ptr %99, i32 0, i32 1
  %101 = load i32, ptr %100, align 4
  %102 = getelementptr inbounds nuw %class.Moves, ptr %11, i32 0, i32 2
  %103 = load i32, ptr %102, align 8
  %104 = icmp eq i32 %101, %103
  br i1 %104, label %105, label %108

105:                                              ; preds = %93
  %106 = load i32, ptr %6, align 4
  %107 = add nsw i32 %106, -3
  store i32 %107, ptr %6, align 4
  br label %108

108:                                              ; preds = %105, %93, %89
  br label %109

109:                                              ; preds = %108, %86
  %110 = getelementptr inbounds nuw %class.Moves, ptr %11, i32 0, i32 8
  %111 = load i32, ptr %110, align 8
  store i32 %111, ptr %7, align 4
  br label %112

112:                                              ; preds = %134, %109
  %113 = load i32, ptr %7, align 4
  %114 = getelementptr inbounds nuw %class.Moves, ptr %11, i32 0, i32 7
  %115 = load i32, ptr %114, align 4
  %116 = icmp slt i32 %113, %115
  br i1 %116, label %117, label %137

117:                                              ; preds = %112
  %118 = getelementptr inbounds nuw %class.Moves, ptr %11, i32 0, i32 12
  %119 = load ptr, ptr %118, align 8
  %120 = load i32, ptr %7, align 4
  %121 = sext i32 %120 to i64
  %122 = getelementptr inbounds %struct.moveType, ptr %119, i64 %121
  %123 = getelementptr inbounds nuw %struct.moveType, ptr %122, i32 0, i32 1
  %124 = load i32, ptr %123, align 4
  %125 = sub nsw i32 0, %124
  %126 = load i32, ptr %6, align 4
  %127 = add nsw i32 %125, %126
  %128 = getelementptr inbounds nuw %class.Moves, ptr %11, i32 0, i32 12
  %129 = load ptr, ptr %128, align 8
  %130 = load i32, ptr %7, align 4
  %131 = sext i32 %130 to i64
  %132 = getelementptr inbounds %struct.moveType, ptr %129, i64 %131
  %133 = getelementptr inbounds nuw %struct.moveType, ptr %132, i32 0, i32 3
  store i32 %127, ptr %133, align 4
  br label %134

134:                                              ; preds = %117
  %135 = load i32, ptr %7, align 4
  %136 = add nsw i32 %135, 1
  store i32 %136, ptr %7, align 4
  br label %112, !llvm.loop !12

137:                                              ; preds = %112
  br label %222

138:                                              ; preds = %2
  %139 = load ptr, ptr %4, align 8
  %140 = getelementptr inbounds nuw %struct.pos, ptr %139, i32 0, i32 2
  %141 = getelementptr inbounds nuw %class.Moves, ptr %11, i32 0, i32 2
  %142 = load i32, ptr %141, align 8
  %143 = sext i32 %142 to i64
  %144 = getelementptr inbounds [4 x [4 x i8]], ptr %140, i64 0, i64 %143
  %145 = getelementptr inbounds nuw %class.Moves, ptr %11, i32 0, i32 6
  %146 = load i32, ptr %145, align 8
  %147 = sext i32 %146 to i64
  %148 = getelementptr inbounds [4 x i8], ptr %144, i64 0, i64 %147
  %149 = load i8, ptr %148, align 1
  %150 = zext i8 %149 to i16
  store i16 %150, ptr %8, align 2
  %151 = load i16, ptr %8, align 2
  %152 = zext i16 %151 to i32
  %153 = shl i32 %152, 6
  %154 = sdiv i32 %153, 33
  store i32 %154, ptr %9, align 4
  %155 = load i16, ptr %8, align 2
  %156 = zext i16 %155 to i32
  %157 = icmp eq i32 %156, 2
  br i1 %157, label %158, label %173

158:                                              ; preds = %138
  %159 = load ptr, ptr %4, align 8
  %160 = getelementptr inbounds nuw %struct.pos, ptr %159, i32 0, i32 10
  %161 = getelementptr inbounds nuw %class.Moves, ptr %11, i32 0, i32 6
  %162 = load i32, ptr %161, align 8
  %163 = sext i32 %162 to i64
  %164 = getelementptr inbounds [4 x %struct.highCardType], ptr %160, i64 0, i64 %163
  %165 = getelementptr inbounds nuw %struct.highCardType, ptr %164, i32 0, i32 1
  %166 = load i32, ptr %165, align 4
  %167 = getelementptr inbounds nuw %class.Moves, ptr %11, i32 0, i32 2
  %168 = load i32, ptr %167, align 8
  %169 = icmp eq i32 %166, %168
  br i1 %169, label %170, label %173

170:                                              ; preds = %158
  %171 = load i32, ptr %9, align 4
  %172 = add nsw i32 %171, -6
  store i32 %172, ptr %9, align 4
  br label %193

173:                                              ; preds = %158, %138
  %174 = load i16, ptr %8, align 2
  %175 = zext i16 %174 to i32
  %176 = icmp eq i32 %175, 1
  br i1 %176, label %177, label %192

177:                                              ; preds = %173
  %178 = load ptr, ptr %4, align 8
  %179 = getelementptr inbounds nuw %struct.pos, ptr %178, i32 0, i32 9
  %180 = getelementptr inbounds nuw %class.Moves, ptr %11, i32 0, i32 6
  %181 = load i32, ptr %180, align 8
  %182 = sext i32 %181 to i64
  %183 = getelementptr inbounds [4 x %struct.highCardType], ptr %179, i64 0, i64 %182
  %184 = getelementptr inbounds nuw %struct.highCardType, ptr %183, i32 0, i32 1
  %185 = load i32, ptr %184, align 4
  %186 = getelementptr inbounds nuw %class.Moves, ptr %11, i32 0, i32 2
  %187 = load i32, ptr %186, align 8
  %188 = icmp eq i32 %185, %187
  br i1 %188, label %189, label %192

189:                                              ; preds = %177
  %190 = load i32, ptr %9, align 4
  %191 = add nsw i32 %190, -8
  store i32 %191, ptr %9, align 4
  br label %192

192:                                              ; preds = %189, %177, %173
  br label %193

193:                                              ; preds = %192, %170
  %194 = getelementptr inbounds nuw %class.Moves, ptr %11, i32 0, i32 8
  %195 = load i32, ptr %194, align 8
  store i32 %195, ptr %10, align 4
  br label %196

196:                                              ; preds = %218, %193
  %197 = load i32, ptr %10, align 4
  %198 = getelementptr inbounds nuw %class.Moves, ptr %11, i32 0, i32 7
  %199 = load i32, ptr %198, align 4
  %200 = icmp slt i32 %197, %199
  br i1 %200, label %201, label %221

201:                                              ; preds = %196
  %202 = getelementptr inbounds nuw %class.Moves, ptr %11, i32 0, i32 12
  %203 = load ptr, ptr %202, align 8
  %204 = load i32, ptr %10, align 4
  %205 = sext i32 %204 to i64
  %206 = getelementptr inbounds %struct.moveType, ptr %203, i64 %205
  %207 = getelementptr inbounds nuw %struct.moveType, ptr %206, i32 0, i32 1
  %208 = load i32, ptr %207, align 4
  %209 = sub nsw i32 0, %208
  %210 = load i32, ptr %9, align 4
  %211 = add nsw i32 %209, %210
  %212 = getelementptr inbounds nuw %class.Moves, ptr %11, i32 0, i32 12
  %213 = load ptr, ptr %212, align 8
  %214 = load i32, ptr %10, align 4
  %215 = sext i32 %214 to i64
  %216 = getelementptr inbounds %struct.moveType, ptr %213, i64 %215
  %217 = getelementptr inbounds nuw %struct.moveType, ptr %216, i32 0, i32 3
  store i32 %211, ptr %217, align 4
  br label %218

218:                                              ; preds = %201
  %219 = load i32, ptr %10, align 4
  %220 = add nsw i32 %219, 1
  store i32 %220, ptr %10, align 4
  br label %196, !llvm.loop !13

221:                                              ; preds = %196
  br label %222

222:                                              ; preds = %221, %137
  ret void
}