; Function Attrs: mustprogress nofree norecurse nosync nounwind memory(readwrite, inaccessiblemem: none) uwtable
define void @_ZN5Moves18WeightAllocNTVoid1ERK3pos(ptr nocapture noundef nonnull readonly align 8 dereferenceable(39992) %0, ptr nocapture noundef nonnull readonly align 4 dereferenceable(1544) %1) #4 align 2 {
  %3 = load i32, ptr %0, align 8
  %4 = sext i32 %3 to i64
  %5 = getelementptr inbounds [4 x i32], ptr @rho, i64 0, i64 %4
  %6 = load i32, ptr %5, align 4
  %7 = sext i32 %6 to i64
  %8 = getelementptr inbounds nuw i8, ptr %0, i64 4
  %9 = load i32, ptr %8, align 4
  %10 = sext i32 %9 to i64
  %11 = getelementptr inbounds [4 x [4 x i16]], ptr %1, i64 0, i64 %7, i64 %10
  %12 = load i16, ptr %11, align 2
  %13 = getelementptr inbounds [4 x i32], ptr @partner, i64 0, i64 %4
  %14 = load i32, ptr %13, align 4
  %15 = sext i32 %14 to i64
  %16 = getelementptr inbounds [4 x [4 x i16]], ptr %1, i64 0, i64 %15, i64 %10
  %17 = load i16, ptr %16, align 2
  %18 = getelementptr inbounds nuw i8, ptr %0, i64 2896
  %19 = load ptr, ptr %18, align 8
  %20 = getelementptr inbounds i8, ptr %19, i64 80
  %21 = load i32, ptr %20, align 4
  %22 = sext i32 %21 to i64
  %23 = getelementptr inbounds [16 x i16], ptr @bitMapRank, i64 0, i64 %22
  %24 = load i16, ptr %23, align 2
  %25 = or i16 %24, %17
  %26 = icmp ugt i16 %12, %25
  %27 = getelementptr inbounds nuw i8, ptr %1, i64 40
  %28 = getelementptr inbounds nuw i8, ptr %0, i64 8
  %29 = load i32, ptr %28, align 8
  %30 = sext i32 %29 to i64
  %31 = getelementptr inbounds nuw i8, ptr %0, i64 24
  %32 = load i32, ptr %31, align 8
  %33 = sext i32 %32 to i64
  %34 = getelementptr inbounds [4 x [4 x i8]], ptr %27, i64 0, i64 %30, i64 %33
  %35 = load i8, ptr %34, align 1
  %36 = zext i8 %35 to i16
  %.lhs.trunc = shl nuw nsw i16 %36, 6
  br i1 %26, label %37, label %63

37:                                               ; preds = %2
  %38 = udiv i16 %.lhs.trunc, 23
  %.zext = zext nneg i16 %38 to i32
  switch i8 %35, label %45 [
    i8 2, label %.sink.split
    i8 1, label %39
  ]

39:                                               ; preds = %37
  br label %.sink.split

.sink.split:                                      ; preds = %37, %39
  %.sink = phi i64 [ 1480, %39 ], [ 1512, %37 ]
  %.sink47 = phi i32 [ -3, %39 ], [ -2, %37 ]
  %40 = getelementptr inbounds nuw i8, ptr %1, i64 %.sink
  %41 = getelementptr inbounds [4 x %struct.highCardType], ptr %40, i64 0, i64 %33, i32 1
  %42 = load i32, ptr %41, align 4
  %43 = icmp eq i32 %42, %29
  %44 = select i1 %43, i32 %.sink47, i32 0
  %spec.select34 = add nsw i32 %44, %.zext
  br label %45

45:                                               ; preds = %.sink.split, %37
  %.029 = phi i32 [ %.zext, %37 ], [ %spec.select34, %.sink.split ]
  %46 = getelementptr inbounds nuw i8, ptr %0, i64 32
  %47 = load i32, ptr %46, align 8
  %48 = getelementptr inbounds nuw i8, ptr %0, i64 28
  %49 = load i32, ptr %48, align 4
  %50 = icmp slt i32 %47, %49
  br i1 %50, label %.lr.ph39, label %.loopexit

.lr.ph39:                                         ; preds = %45
  %51 = getelementptr inbounds nuw i8, ptr %0, i64 14968
  %52 = sext i32 %47 to i64
  br label %53

53:                                               ; preds = %.lr.ph39, %53
  %indvars.iv42 = phi i64 [ %52, %.lr.ph39 ], [ %indvars.iv.next43, %53 ]
  %54 = load ptr, ptr %51, align 8
  %55 = getelementptr inbounds %struct.moveType, ptr %54, i64 %indvars.iv42
  %56 = getelementptr inbounds nuw i8, ptr %55, i64 4
  %57 = load i32, ptr %56, align 4
  %58 = sub nsw i32 %.029, %57
  %59 = getelementptr inbounds nuw i8, ptr %55, i64 12
  store i32 %58, ptr %59, align 4
  %indvars.iv.next43 = add nsw i64 %indvars.iv42, 1
  %60 = load i32, ptr %48, align 4
  %61 = sext i32 %60 to i64
  %62 = icmp slt i64 %indvars.iv.next43, %61
  br i1 %62, label %53, label %.loopexit, !llvm.loop !12

63:                                               ; preds = %2
  %64 = udiv i16 %.lhs.trunc, 33
  %.zext33 = zext nneg i16 %64 to i32
  switch i8 %35, label %77 [
    i8 2, label %65
    i8 1, label %71
  ]

65:                                               ; preds = %63
  %66 = getelementptr inbounds nuw i8, ptr %1, i64 1512
  %67 = getelementptr inbounds [4 x %struct.highCardType], ptr %66, i64 0, i64 %33, i32 1
  %68 = load i32, ptr %67, align 4
  %69 = icmp eq i32 %68, %29
  %70 = add nuw nsw i32 %.zext33, -6
  %spec.select35 = select i1 %69, i32 %70, i32 %.zext33
  br label %77

71:                                               ; preds = %63
  %72 = getelementptr inbounds nuw i8, ptr %1, i64 1480
  %73 = getelementptr inbounds [4 x %struct.highCardType], ptr %72, i64 0, i64 %33, i32 1
  %74 = load i32, ptr %73, align 4
  %75 = icmp eq i32 %74, %29
  %76 = or disjoint i32 %.zext33, -8
  %spec.select31 = select i1 %75, i32 %76, i32 %.zext33
  br label %77

77:                                               ; preds = %65, %71, %63
  %.028 = phi i32 [ %.zext33, %63 ], [ %spec.select31, %71 ], [ %spec.select35, %65 ]
  %78 = getelementptr inbounds nuw i8, ptr %0, i64 32
  %79 = load i32, ptr %78, align 8
  %80 = getelementptr inbounds nuw i8, ptr %0, i64 28
  %81 = load i32, ptr %80, align 4
  %82 = icmp slt i32 %79, %81
  br i1 %82, label %.lr.ph, label %.loopexit

.lr.ph:                                           ; preds = %77
  %83 = getelementptr inbounds nuw i8, ptr %0, i64 14968
  %84 = sext i32 %79 to i64
  br label %85

85:                                               ; preds = %.lr.ph, %85
  %indvars.iv = phi i64 [ %84, %.lr.ph ], [ %indvars.iv.next, %85 ]
  %86 = load ptr, ptr %83, align 8
  %87 = getelementptr inbounds %struct.moveType, ptr %86, i64 %indvars.iv
  %88 = getelementptr inbounds nuw i8, ptr %87, i64 4
  %89 = load i32, ptr %88, align 4
  %90 = sub nsw i32 %.028, %89
  %91 = getelementptr inbounds nuw i8, ptr %87, i64 12
  store i32 %90, ptr %91, align 4
  %indvars.iv.next = add nsw i64 %indvars.iv, 1
  %92 = load i32, ptr %80, align 4
  %93 = sext i32 %92 to i64
  %94 = icmp slt i64 %indvars.iv.next, %93
  br i1 %94, label %85, label %.loopexit, !llvm.loop !13

.loopexit:                                        ; preds = %85, %53, %77, %45
  ret void
}